; Function Attrs: mustprogress uwtable
define hidden noundef zeroext i1 @_ZN11OpenImageIO6v3_1_016OpenEXRCoreInput17read_native_tilesEiiiiiiiiPv(ptr noundef nonnull align 8 dereferenceable(280) %0, i32 noundef %1, i32 noundef %2, i32 noundef %3, i32 noundef %4, i32 noundef %5, i32 noundef %6, i32 noundef %7, i32 noundef %8, ptr noundef %9) unnamed_addr #5 align 2 {
  %11 = getelementptr inbounds nuw i8, ptr %0, i64 216
  %12 = load ptr, ptr %11, align 8, !tbaa !138
  %.not = icmp eq ptr %12, null
  br i1 %.not, label %13, label %14

13:                                               ; preds = %10
  tail call void @_ZNK11OpenImageIO6v3_1_010ImageInput8errorfmtIJEEEvPKcDpRKT_(ptr noundef nonnull align 8 dereferenceable(184) %0, ptr noundef nonnull @.str.87)
  br label %19

14:                                               ; preds = %10
  %15 = tail call noundef nonnull align 8 dereferenceable(160) ptr @_ZN11OpenImageIO6v3_1_016OpenEXRCoreInput9init_partEii(ptr noundef nonnull align 8 dereferenceable(280) %0, i32 noundef %1, i32 noundef %2)
  %16 = getelementptr inbounds nuw i8, ptr %15, i64 60
  %17 = load i32, ptr %16, align 4, !tbaa !303
  %18 = tail call noundef zeroext i1 @_ZN11OpenImageIO6v3_1_016OpenEXRCoreInput17read_native_tilesEiiiiiiiiiiPv(ptr noundef nonnull align 8 dereferenceable(280) %0, i32 noundef %1, i32 noundef %2, i32 noundef %3, i32 noundef %4, i32 noundef %5, i32 noundef %6, i32 noundef %7, i32 noundef %8, i32 noundef 0, i32 noundef %17, ptr noundef %9)
  br label %19

19:                                               ; preds = %14, %13
  %.0 = phi i1 [ %18, %14 ], [ false, %13 ]
  ret i1 %.0
}